; Function Attrs: mustprogress uwtable
define hidden void @_ZN6spacer15set_true_in_mdlER5modelP9func_decl(ptr noundef nonnull align 8 dereferenceable(160) %model, ptr noundef %f) local_unnamed_addr #3 {
entry:
  tail call void @_ZN10model_core15unregister_declEP9func_decl(ptr noundef nonnull align 8 dereferenceable(96) %model, ptr noundef %f)
  %m.i = getelementptr inbounds i8, ptr %model, i64 8
  %0 = load ptr, ptr %m.i, align 8
  %m_true.i = getelementptr inbounds i8, ptr %0, i64 856
  %1 = load ptr, ptr %m_true.i, align 8
  tail call void @_ZN10model_core13register_declEP9func_declP4expr(ptr noundef nonnull align 8 dereferenceable(96) %model, ptr noundef %f, ptr noundef %1)
  tail call void @_ZN5model16reset_eval_cacheEv(ptr noundef nonnull align 8 dereferenceable(160) %model)
  ret void
}